target datalayout = "e-m:e-p270:32:32-p271:32:32-p272:64:64-i64:64-i128:128-f80:128-n8:16:32:64-S128"
target triple = "x86_64-pc-linux-gnu"

%struct.mi_heap_s = type { ptr, ptr, i64, i32, i64, [2 x i64], %struct.mi_random_cxt_s, i64, i64, i64, ptr, i8, i8, [129 x ptr], [75 x %struct.mi_page_queue_s] }
%struct.mi_random_cxt_s = type { [16 x i32], [16 x i32], i32, i8 }
%struct.mi_page_queue_s = type { ptr, ptr, i64 }
%struct.mi_page_s = type { i32, i32, i8, i16, i16, %union.mi_page_flags_s, i8, ptr, ptr, i16, i8, i8, i64, ptr, i64, i64, ptr, ptr, [1 x ptr] }
%union.mi_page_flags_s = type { i8 }
%struct.mi_tld_s = type { i64, i8, ptr, ptr, %struct.mi_segments_tld_s, %struct.mi_stats_s }
%struct.mi_segments_tld_s = type { [36 x %struct.mi_span_queue_s], i64, i64, i64, i64, i64, ptr, ptr }
%struct.mi_span_queue_s = type { ptr, ptr, i64 }
%struct.mi_stats_s = type { %struct.mi_stat_count_s, %struct.mi_stat_count_s, %struct.mi_stat_count_s, %struct.mi_stat_count_s, %struct.mi_stat_count_s, %struct.mi_stat_count_s, %struct.mi_stat_count_s, %struct.mi_stat_count_s, %struct.mi_stat_count_s, %struct.mi_stat_count_s, %struct.mi_stat_count_s, %struct.mi_stat_count_s, %struct.mi_stat_count_s, %struct.mi_stat_count_s, %struct.mi_stat_count_s, %struct.mi_stat_counter_s, %struct.mi_stat_counter_s, %struct.mi_stat_counter_s, %struct.mi_stat_counter_s, %struct.mi_stat_counter_s, %struct.mi_stat_counter_s, %struct.mi_stat_counter_s, %struct.mi_stat_counter_s, %struct.mi_stat_counter_s, %struct.mi_stat_counter_s, %struct.mi_stat_counter_s, %struct.mi_stat_counter_s, %struct.mi_stat_counter_s, %struct.mi_stat_counter_s }
%struct.mi_stat_count_s = type { i64, i64, i64, i64 }
%struct.mi_stat_counter_s = type { i64, i64 }

; Function Attrs: inlinehint nounwind uwtable
define internal i64 @mi_clz(i64 noundef %0) #1 {
  %2 = alloca i64, align 8
  %3 = alloca i64, align 8
  store i64 %0, ptr %3, align 8, !tbaa !3
  %4 = load i64, ptr %3, align 8, !tbaa !3
  %5 = icmp eq i64 %4, 0
  br i1 %5, label %6, label %7

6:                                                ; preds = %1
  store i64 64, ptr %2, align 8
  br label %12

7:                                                ; preds = %1
  %8 = load i64, ptr %3, align 8, !tbaa !3
  %9 = call i64 @llvm.ctlz.i64(i64 %8, i1 true)
  %10 = trunc i64 %9 to i32
  %11 = sext i32 %10 to i64
  store i64 %11, ptr %2, align 8
  br label %12

12:                                               ; preds = %7, %6
  %13 = load i64, ptr %2, align 8
  ret i64 %13
}

; Function Attrs: inlinehint nounwind uwtable
define internal i64 @mi_bsr(i64 noundef %0) #1 {
  %2 = alloca i64, align 8
  store i64 %0, ptr %2, align 8, !tbaa !3
  %3 = load i64, ptr %2, align 8, !tbaa !3
  %4 = icmp eq i64 %3, 0
  br i1 %4, label %5, label %6

5:                                                ; preds = %1
  br label %10

6:                                                ; preds = %1
  %7 = load i64, ptr %2, align 8, !tbaa !3
  %8 = call i64 @mi_clz(i64 noundef %7) #10
  %9 = sub i64 63, %8
  br label %10

10:                                               ; preds = %6, %5
  %11 = phi i64 [ 64, %5 ], [ %9, %6 ]
  ret i64 %11
}

; Function Attrs: inlinehint nounwind uwtable
define internal i64 @_mi_wsize_from_size(i64 noundef %0) #1 {
  %2 = alloca i64, align 8
  store i64 %0, ptr %2, align 8, !tbaa !3
  %3 = load i64, ptr %2, align 8, !tbaa !3
  %4 = add i64 %3, 8
  %5 = sub i64 %4, 1
  %6 = udiv i64 %5, 8
  ret i64 %6
}

; Function Attrs: inlinehint nounwind uwtable
define internal zeroext i8 @mi_bin(i64 noundef %0) #1 {
  %2 = alloca i64, align 8
  %3 = alloca i64, align 8
  %4 = alloca i8, align 1
  %5 = alloca i8, align 1
  store i64 %0, ptr %2, align 8, !tbaa !3
  call void @llvm.lifetime.start.p0(i64 8, ptr %3) #6
  %6 = load i64, ptr %2, align 8, !tbaa !3
  %7 = call i64 @_mi_wsize_from_size(i64 noundef %6) #10
  store i64 %7, ptr %3, align 8, !tbaa !3
  call void @llvm.lifetime.start.p0(i64 1, ptr %4) #6
  %8 = load i64, ptr %3, align 8, !tbaa !3
  %9 = icmp ule i64 %8, 1
  br i1 %9, label %10, label %11

10:                                               ; preds = %1
  store i8 1, ptr %4, align 1, !tbaa !7
  br label %46

11:                                               ; preds = %1
  %12 = load i64, ptr %3, align 8, !tbaa !3
  %13 = icmp ule i64 %12, 8
  br i1 %13, label %14, label %19

14:                                               ; preds = %11
  %15 = load i64, ptr %3, align 8, !tbaa !3
  %16 = add i64 %15, 1
  %17 = and i64 %16, -2
  %18 = trunc i64 %17 to i8
  store i8 %18, ptr %4, align 1, !tbaa !7
  br label %45

19:                                               ; preds = %11
  %20 = load i64, ptr %3, align 8, !tbaa !3
  %21 = icmp ugt i64 %20, 16384
  br i1 %21, label %22, label %23

22:                                               ; preds = %19
  store i8 73, ptr %4, align 1, !tbaa !7
  br label %44

23:                                               ; preds = %19
  %24 = load i64, ptr %3, align 8, !tbaa !3
  %25 = add i64 %24, -1
  store i64 %25, ptr %3, align 8, !tbaa !3
  call void @llvm.lifetime.start.p0(i64 1, ptr %5) #6
  %26 = load i64, ptr %3, align 8, !tbaa !3
  %27 = call i64 @mi_bsr(i64 noundef %26) #10
  %28 = trunc i64 %27 to i8
  store i8 %28, ptr %5, align 1, !tbaa !7
  %29 = load i8, ptr %5, align 1, !tbaa !7
  %30 = zext i8 %29 to i32
  %31 = shl i32 %30, 2
  %32 = load i64, ptr %3, align 8, !tbaa !3
  %33 = load i8, ptr %5, align 1, !tbaa !7
  %34 = zext i8 %33 to i32
  %35 = sub nsw i32 %34, 2
  %36 = zext i32 %35 to i64
  %37 = lshr i64 %32, %36
  %38 = and i64 %37, 3
  %39 = trunc i64 %38 to i8
  %40 = zext i8 %39 to i32
  %41 = add nsw i32 %31, %40
  %42 = sub nsw i32 %41, 3
  %43 = trunc i32 %42 to i8
  store i8 %43, ptr %4, align 1, !tbaa !7
  call void @llvm.lifetime.end.p0(i64 1, ptr %5) #6
  br label %44

44:                                               ; preds = %23, %22
  br label %45

45:                                               ; preds = %44, %14
  br label %46

46:                                               ; preds = %45, %10
  %47 = load i8, ptr %4, align 1, !tbaa !7
  call void @llvm.lifetime.end.p0(i64 1, ptr %4) #6
  call void @llvm.lifetime.end.p0(i64 8, ptr %3) #6
  ret i8 %47
}

; Function Attrs: inlinehint nounwind uwtable
define internal zeroext i1 @mi_page_is_huge(ptr noundef %0) #1 {
  %2 = alloca ptr, align 8
  store ptr %0, ptr %2, align 8, !tbaa !17
  %3 = load ptr, ptr %2, align 8, !tbaa !17
  %4 = getelementptr inbounds nuw %struct.mi_page_s, ptr %3, i32 0, i32 2
  %5 = load i8, ptr %4, align 8
  %6 = lshr i8 %5, 2
  %7 = and i8 %6, 1
  %8 = icmp ne i8 %7, 0
  ret i1 %8
}

; Function Attrs: inlinehint nounwind uwtable
define internal zeroext i1 @mi_page_is_in_full(ptr noundef %0) #1 {
  %2 = alloca ptr, align 8
  store ptr %0, ptr %2, align 8, !tbaa !17
  %3 = load ptr, ptr %2, align 8, !tbaa !17
  %4 = getelementptr inbounds nuw %struct.mi_page_s, ptr %3, i32 0, i32 5
  %5 = load i8, ptr %4, align 2
  %6 = and i8 %5, 1
  %7 = icmp ne i8 %6, 0
  ret i1 %7
}

; Function Attrs: inlinehint nounwind uwtable
define internal void @mi_page_set_heap(ptr noundef %0, ptr noundef %1) #1 {
  %3 = alloca ptr, align 8
  %4 = alloca ptr, align 8
  %5 = alloca i64, align 8
  store ptr %0, ptr %3, align 8, !tbaa !17
  store ptr %1, ptr %4, align 8, !tbaa !12
  %6 = load ptr, ptr %3, align 8, !tbaa !17
  %7 = getelementptr inbounds nuw %struct.mi_page_s, ptr %6, i32 0, i32 15
  %8 = load ptr, ptr %4, align 8, !tbaa !12
  %9 = ptrtoint ptr %8 to i64
  store i64 %9, ptr %5, align 8, !tbaa !3
  %10 = load i64, ptr %5, align 8
  store atomic i64 %10, ptr %7 release, align 8
  %11 = load ptr, ptr %4, align 8, !tbaa !12
  %12 = icmp ne ptr %11, null
  br i1 %12, label %13, label %19

13:                                               ; preds = %2
  %14 = load ptr, ptr %4, align 8, !tbaa !12
  %15 = getelementptr inbounds nuw %struct.mi_heap_s, ptr %14, i32 0, i32 12
  %16 = load i8, ptr %15, align 1, !tbaa !65
  %17 = load ptr, ptr %3, align 8, !tbaa !17
  %18 = getelementptr inbounds nuw %struct.mi_page_s, ptr %17, i32 0, i32 11
  store i8 %16, ptr %18, align 1, !tbaa !66
  br label %19

19:                                               ; preds = %13, %2
  ret void
}

; Function Attrs: nounwind uwtable
define internal ptr @mi_heap_page_queue_of(ptr noundef %0, ptr noundef %1) #0 {
  %3 = alloca ptr, align 8
  %4 = alloca ptr, align 8
  %5 = alloca i8, align 1
  %6 = alloca ptr, align 8
  store ptr %0, ptr %3, align 8, !tbaa !12
  store ptr %1, ptr %4, align 8, !tbaa !17
  call void @llvm.lifetime.start.p0(i64 1, ptr %5) #6
  %7 = load ptr, ptr %4, align 8, !tbaa !17
  %8 = call zeroext i1 @mi_page_is_in_full(ptr noundef %7) #10
  br i1 %8, label %9, label %10

9:                                                ; preds = %2
  br label %21

10:                                               ; preds = %2
  %11 = load ptr, ptr %4, align 8, !tbaa !17
  %12 = call zeroext i1 @mi_page_is_huge(ptr noundef %11) #10
  br i1 %12, label %13, label %14

13:                                               ; preds = %10
  br label %19

14:                                               ; preds = %10
  %15 = load ptr, ptr %4, align 8, !tbaa !17
  %16 = call i64 @mi_page_block_size(ptr noundef %15) #10
  %17 = call zeroext i8 @mi_bin(i64 noundef %16) #10
  %18 = zext i8 %17 to i32
  br label %19

19:                                               ; preds = %14, %13
  %20 = phi i32 [ 73, %13 ], [ %18, %14 ]
  br label %21

21:                                               ; preds = %19, %9
  %22 = phi i32 [ 74, %9 ], [ %20, %19 ]
  %23 = trunc i32 %22 to i8
  store i8 %23, ptr %5, align 1, !tbaa !7
  call void @llvm.lifetime.start.p0(i64 8, ptr %6) #6
  %24 = load ptr, ptr %3, align 8, !tbaa !12
  %25 = getelementptr inbounds nuw %struct.mi_heap_s, ptr %24, i32 0, i32 14
  %26 = load i8, ptr %5, align 1, !tbaa !7
  %27 = zext i8 %26 to i64
  %28 = getelementptr inbounds nuw [75 x %struct.mi_page_queue_s], ptr %25, i64 0, i64 %27
  store ptr %28, ptr %6, align 8, !tbaa !14
  %29 = load ptr, ptr %6, align 8, !tbaa !14
  call void @llvm.lifetime.end.p0(i64 8, ptr %6) #6
  call void @llvm.lifetime.end.p0(i64 1, ptr %5) #6
  ret ptr %29
}

; Function Attrs: nounwind uwtable
define hidden void @_mi_page_free(ptr noundef %0, ptr noundef %1, i1 noundef zeroext %2) #0 {
  %4 = alloca ptr, align 8
  %5 = alloca ptr, align 8
  %6 = alloca i8, align 1
  %7 = alloca ptr, align 8
  %8 = alloca ptr, align 8
  store ptr %0, ptr %4, align 8, !tbaa !17
  store ptr %1, ptr %5, align 8, !tbaa !14
  %9 = zext i1 %2 to i8
  store i8 %9, ptr %6, align 1, !tbaa !29
  %10 = load ptr, ptr %4, align 8, !tbaa !17
  call void @mi_page_set_has_aligned(ptr noundef %10, i1 noundef zeroext false) #10
  call void @llvm.lifetime.start.p0(i64 8, ptr %7) #6
  %11 = load ptr, ptr %4, align 8, !tbaa !17
  %12 = call ptr @mi_page_heap(ptr noundef %11) #10
  store ptr %12, ptr %7, align 8, !tbaa !12
  call void @llvm.lifetime.start.p0(i64 8, ptr %8) #6
  %13 = load ptr, ptr %7, align 8, !tbaa !12
  %14 = getelementptr inbounds nuw %struct.mi_heap_s, ptr %13, i32 0, i32 0
  %15 = load ptr, ptr %14, align 8, !tbaa !62
  %16 = getelementptr inbounds nuw %struct.mi_tld_s, ptr %15, i32 0, i32 4
  store ptr %16, ptr %8, align 8, !tbaa !63
  %17 = load ptr, ptr %5, align 8, !tbaa !14
  %18 = load ptr, ptr %4, align 8, !tbaa !17
  call void @mi_page_queue_remove(ptr noundef %17, ptr noundef %18) #10
  %19 = load ptr, ptr %4, align 8, !tbaa !17
  call void @mi_page_set_heap(ptr noundef %19, ptr noundef null) #10
  %20 = load ptr, ptr %4, align 8, !tbaa !17
  %21 = load i8, ptr %6, align 1, !tbaa !29, !range !31, !noundef !32
  %22 = trunc i8 %21 to i1
  %23 = load ptr, ptr %8, align 8, !tbaa !63
  call void @_mi_segment_page_free(ptr noundef %20, i1 noundef zeroext %22, ptr noundef %23) #10
  call void @llvm.lifetime.end.p0(i64 8, ptr %8) #6
  call void @llvm.lifetime.end.p0(i64 8, ptr %7) #6
  ret void
}

; Function Attrs: inlinehint nounwind uwtable
define internal ptr @mi_page_heap(ptr noundef %0) #1 {
  %2 = alloca ptr, align 8
  %3 = alloca i64, align 8
  store ptr %0, ptr %2, align 8, !tbaa !17
  %4 = load ptr, ptr %2, align 8, !tbaa !17
  %5 = getelementptr inbounds nuw %struct.mi_page_s, ptr %4, i32 0, i32 15
  %6 = load atomic i64, ptr %5 monotonic, align 8
  store i64 %6, ptr %3, align 8
  %7 = load i64, ptr %3, align 8, !tbaa !3
  %8 = inttoptr i64 %7 to ptr
  ret ptr %8
}

; Function Attrs: inlinehint nounwind uwtable
define internal zeroext i1 @mi_page_queue_is_special(ptr noundef %0) #1 {
  %2 = alloca ptr, align 8
  store ptr %0, ptr %2, align 8, !tbaa !14
  %3 = load ptr, ptr %2, align 8, !tbaa !14
  %4 = getelementptr inbounds nuw %struct.mi_page_queue_s, ptr %3, i32 0, i32 2
  %5 = load i64, ptr %4, align 8, !tbaa !8
  %6 = icmp ugt i64 %5, 131072
  ret i1 %6
}

; Function Attrs: inlinehint nounwind uwtable
define internal i64 @mi_page_block_size(ptr noundef %0) #1 {
  %2 = alloca ptr, align 8
  store ptr %0, ptr %2, align 8, !tbaa !17
  %3 = load ptr, ptr %2, align 8, !tbaa !17
  %4 = getelementptr inbounds nuw %struct.mi_page_s, ptr %3, i32 0, i32 12
  %5 = load i64, ptr %4, align 8, !tbaa !48
  ret i64 %5
}

; Function Attrs: nounwind uwtable
define internal ptr @mi_page_queue_of(ptr noundef %0) #0 {
  %2 = alloca ptr, align 8
  %3 = alloca ptr, align 8
  %4 = alloca ptr, align 8
  store ptr %0, ptr %2, align 8, !tbaa !17
  call void @llvm.lifetime.start.p0(i64 8, ptr %3) #6
  %5 = load ptr, ptr %2, align 8, !tbaa !17
  %6 = call ptr @mi_page_heap(ptr noundef %5) #10
  store ptr %6, ptr %3, align 8, !tbaa !12
  call void @llvm.lifetime.start.p0(i64 8, ptr %4) #6
  %7 = load ptr, ptr %3, align 8, !tbaa !12
  %8 = load ptr, ptr %2, align 8, !tbaa !17
  %9 = call ptr @mi_heap_page_queue_of(ptr noundef %7, ptr noundef %8) #10
  store ptr %9, ptr %4, align 8, !tbaa !14
  %10 = load ptr, ptr %4, align 8, !tbaa !14
  call void @llvm.lifetime.end.p0(i64 8, ptr %4) #6
  call void @llvm.lifetime.end.p0(i64 8, ptr %3) #6
  ret ptr %10
}

; Function Attrs: inlinehint nounwind uwtable
define internal void @mi_page_set_has_aligned(ptr noundef %0, i1 noundef zeroext %1) #1 {
  %3 = alloca ptr, align 8
  %4 = alloca i8, align 1
  store ptr %0, ptr %3, align 8, !tbaa !17
  %5 = zext i1 %1 to i8
  store i8 %5, ptr %4, align 1, !tbaa !29
  %6 = load i8, ptr %4, align 1, !tbaa !29, !range !31, !noundef !32
  %7 = trunc i8 %6 to i1
  %8 = zext i1 %7 to i8
  %9 = load ptr, ptr %3, align 8, !tbaa !17
  %10 = getelementptr inbounds nuw %struct.mi_page_s, ptr %9, i32 0, i32 5
  %11 = load i8, ptr %10, align 2
  %12 = and i8 %8, 1
  %13 = shl i8 %12, 1
  %14 = and i8 %11, -3
  %15 = or i8 %14, %13
  store i8 %15, ptr %10, align 2
  ret void
}

; Function Attrs: nounwind uwtable
define hidden void @_mi_page_retire(ptr noundef %0) #0 {
  %2 = alloca ptr, align 8
  %3 = alloca ptr, align 8
  %4 = alloca i64, align 8
  %5 = alloca ptr, align 8
  %6 = alloca i64, align 8
  %7 = alloca i32, align 4
  store ptr %0, ptr %2, align 8, !tbaa !17
  %8 = load ptr, ptr %2, align 8, !tbaa !17
  call void @mi_page_set_has_aligned(ptr noundef %8, i1 noundef zeroext false) #10
  call void @llvm.lifetime.start.p0(i64 8, ptr %3) #6
  %9 = load ptr, ptr %2, align 8, !tbaa !17
  %10 = call ptr @mi_page_queue_of(ptr noundef %9) #10
  store ptr %10, ptr %3, align 8, !tbaa !14
  call void @llvm.lifetime.start.p0(i64 8, ptr %4) #6
  %11 = load ptr, ptr %2, align 8, !tbaa !17
  %12 = call i64 @mi_page_block_size(ptr noundef %11) #10
  store i64 %12, ptr %4, align 8, !tbaa !3
  %13 = load ptr, ptr %3, align 8, !tbaa !14
  %14 = call zeroext i1 @mi_page_queue_is_special(ptr noundef %13) #10
  %15 = xor i1 %14, true
  %16 = xor i1 %15, true
  %17 = xor i1 %16, true
  %18 = zext i1 %17 to i32
  %19 = sext i32 %18 to i64
  %20 = call i64 @llvm.expect.i64(i64 %19, i64 1)
  %21 = icmp ne i64 %20, 0
  br i1 %21, label %22, label %77

22:                                               ; preds = %1
  %23 = load ptr, ptr %3, align 8, !tbaa !14
  %24 = getelementptr inbounds nuw %struct.mi_page_queue_s, ptr %23, i32 0, i32 1
  %25 = load ptr, ptr %24, align 8, !tbaa !26
  %26 = load ptr, ptr %2, align 8, !tbaa !17
  %27 = icmp eq ptr %25, %26
  br i1 %27, label %28, label %76

28:                                               ; preds = %22
  %29 = load ptr, ptr %3, align 8, !tbaa !14
  %30 = getelementptr inbounds nuw %struct.mi_page_queue_s, ptr %29, i32 0, i32 0
  %31 = load ptr, ptr %30, align 8, !tbaa !16
  %32 = load ptr, ptr %2, align 8, !tbaa !17
  %33 = icmp eq ptr %31, %32
  br i1 %33, label %34, label %76

34:                                               ; preds = %28
  %35 = load i64, ptr %4, align 8, !tbaa !3
  %36 = icmp ule i64 %35, 16384
  %37 = select i1 %36, i32 16, i32 4
  %38 = trunc i32 %37 to i8
  %39 = load ptr, ptr %2, align 8, !tbaa !17
  %40 = getelementptr inbounds nuw %struct.mi_page_s, ptr %39, i32 0, i32 6
  %41 = load i8, ptr %40, align 1
  %42 = and i8 %38, 127
  %43 = shl i8 %42, 1
  %44 = and i8 %41, 1
  %45 = or i8 %44, %43
  store i8 %45, ptr %40, align 1
  call void @llvm.lifetime.start.p0(i64 8, ptr %5) #6
  %46 = load ptr, ptr %2, align 8, !tbaa !17
  %47 = call ptr @mi_page_heap(ptr noundef %46) #10
  store ptr %47, ptr %5, align 8, !tbaa !12
  call void @llvm.lifetime.start.p0(i64 8, ptr %6) #6
  %48 = load ptr, ptr %3, align 8, !tbaa !14
  %49 = load ptr, ptr %5, align 8, !tbaa !12
  %50 = getelementptr inbounds nuw %struct.mi_heap_s, ptr %49, i32 0, i32 14
  %51 = getelementptr inbounds [75 x %struct.mi_page_queue_s], ptr %50, i64 0, i64 0
  %52 = ptrtoint ptr %48 to i64
  %53 = ptrtoint ptr %51 to i64
  %54 = sub i64 %52, %53
  %55 = sdiv exact i64 %54, 24
  store i64 %55, ptr %6, align 8, !tbaa !3
  %56 = load i64, ptr %6, align 8, !tbaa !3
  %57 = load ptr, ptr %5, align 8, !tbaa !12
  %58 = getelementptr inbounds nuw %struct.mi_heap_s, ptr %57, i32 0, i32 8
  %59 = load i64, ptr %58, align 8, !tbaa !67
  %60 = icmp ult i64 %56, %59
  br i1 %60, label %61, label %65

61:                                               ; preds = %34
  %62 = load i64, ptr %6, align 8, !tbaa !3
  %63 = load ptr, ptr %5, align 8, !tbaa !12
  %64 = getelementptr inbounds nuw %struct.mi_heap_s, ptr %63, i32 0, i32 8
  store i64 %62, ptr %64, align 8, !tbaa !67
  br label %65

65:                                               ; preds = %61, %34
  %66 = load i64, ptr %6, align 8, !tbaa !3
  %67 = load ptr, ptr %5, align 8, !tbaa !12
  %68 = getelementptr inbounds nuw %struct.mi_heap_s, ptr %67, i32 0, i32 9
  %69 = load i64, ptr %68, align 8, !tbaa !68
  %70 = icmp ugt i64 %66, %69
  br i1 %70, label %71, label %75

71:                                               ; preds = %65
  %72 = load i64, ptr %6, align 8, !tbaa !3
  %73 = load ptr, ptr %5, align 8, !tbaa !12
  %74 = getelementptr inbounds nuw %struct.mi_heap_s, ptr %73, i32 0, i32 9
  store i64 %72, ptr %74, align 8, !tbaa !68
  br label %75

75:                                               ; preds = %71, %65
  store i32 1, ptr %7, align 4
  call void @llvm.lifetime.end.p0(i64 8, ptr %6) #6
  call void @llvm.lifetime.end.p0(i64 8, ptr %5) #6
  br label %80

76:                                               ; preds = %28, %22
  br label %77

77:                                               ; preds = %76, %1
  %78 = load ptr, ptr %2, align 8, !tbaa !17
  %79 = load ptr, ptr %3, align 8, !tbaa !14
  call void @_mi_page_free(ptr noundef %78, ptr noundef %79, i1 noundef zeroext false) #10
  store i32 0, ptr %7, align 4
  br label %80

80:                                               ; preds = %77, %75
  call void @llvm.lifetime.end.p0(i64 8, ptr %4) #6
  call void @llvm.lifetime.end.p0(i64 8, ptr %3) #6
  %81 = load i32, ptr %7, align 4
  switch i32 %81, label %83 [
    i32 0, label %82
    i32 1, label %82
  ]

82:                                               ; preds = %80, %80
  ret void

83:                                               ; preds = %80
  unreachable
}