; Function Attrs: nounwind uwtable
define hidden void @_mi_page_retire(ptr noundef %0) local_unnamed_addr #1 {
  %2 = getelementptr inbounds nuw i8, ptr %0, i64 14
  %3 = load i8, ptr %2, align 2
  %4 = and i8 %3, -3
  store i8 %4, ptr %2, align 2
  %5 = getelementptr inbounds nuw i8, ptr %0, i64 64
  %6 = load atomic i64, ptr %5 monotonic, align 8
  %7 = and i8 %3, 1
  %.not.i.i = icmp eq i8 %7, 0
  br i1 %.not.i.i, label %8, label %mi_page_queue_of.exit

8:                                                ; preds = %1
  %9 = getelementptr i8, ptr %0, i64 8
  %.val6.i.i = load i8, ptr %9, align 8
  %10 = and i8 %.val6.i.i, 4
  %.not7.i.i = icmp eq i8 %10, 0
  br i1 %.not7.i.i, label %11, label %mi_page_queue_of.exit

11:                                               ; preds = %8
  %12 = getelementptr i8, ptr %0, i64 40
  %.val.i.i = load i64, ptr %12, align 8, !tbaa !38
  %13 = add i64 %.val.i.i, 7
  %14 = lshr i64 %13, 3
  %15 = icmp ult i64 %13, 16
  br i1 %15, label %mi_page_queue_of.exit, label %16

16:                                               ; preds = %11
  %17 = icmp ult i64 %13, 72
  br i1 %17, label %18, label %21

18:                                               ; preds = %16
  %19 = add nuw nsw i64 %14, 1
  %20 = and i64 %19, 30
  br label %mi_page_queue_of.exit

21:                                               ; preds = %16
  %22 = icmp ugt i64 %13, 131079
  br i1 %22, label %mi_page_queue_of.exit, label %23

23:                                               ; preds = %21
  %24 = add nsw i64 %14, -1
  %25 = tail call range(i64 50, 61) i64 @llvm.ctlz.i64(i64 range(i64 8, 16384) %24, i1 true)
  %26 = shl nuw nsw i64 %25, 2
  %27 = xor i64 %26, 252
  %28 = sub nuw nsw i64 61, %25
  %29 = lshr i64 %24, %28
  %30 = and i64 %29, 3
  %31 = add nuw nsw i64 %27, 253
  %32 = add nuw nsw i64 %31, %30
  %33 = and i64 %32, 255
  br label %mi_page_queue_of.exit

mi_page_queue_of.exit:                            ; preds = %1, %8, %11, %18, %21, %23
  %34 = phi i64 [ 74, %1 ], [ 73, %8 ], [ %20, %18 ], [ %33, %23 ], [ 1, %11 ], [ 73, %21 ]
  %35 = inttoptr i64 %6 to ptr
  %36 = getelementptr inbounds nuw i8, ptr %35, i64 1264
  %37 = getelementptr inbounds nuw [75 x %struct.mi_page_queue_s], ptr %36, i64 0, i64 %34
  %38 = getelementptr i8, ptr %0, i64 40
  %.val = load i64, ptr %38, align 8, !tbaa !38
  %39 = getelementptr i8, ptr %37, i64 16
  %.val23 = load i64, ptr %39, align 8, !tbaa !3
  %40 = icmp ugt i64 %.val23, 131072
  br i1 %40, label %71, label %41, !prof !27

41:                                               ; preds = %mi_page_queue_of.exit
  %42 = getelementptr inbounds nuw i8, ptr %37, i64 8
  %43 = load ptr, ptr %42, align 8, !tbaa !11
  %44 = icmp eq ptr %43, %0
  br i1 %44, label %45, label %71

45:                                               ; preds = %41
  %46 = load ptr, ptr %37, align 8, !tbaa !10
  %47 = icmp eq ptr %46, %0
  br i1 %47, label %48, label %71

48:                                               ; preds = %45
  %49 = icmp ult i64 %.val, 16385
  %50 = select i1 %49, i8 32, i8 8
  %51 = getelementptr inbounds nuw i8, ptr %0, i64 15
  %52 = load i8, ptr %51, align 1
  %53 = and i8 %52, 1
  %54 = or disjoint i8 %53, %50
  store i8 %54, ptr %51, align 1
  %55 = load atomic i64, ptr %5 monotonic, align 8
  %56 = inttoptr i64 %55 to ptr
  %57 = getelementptr inbounds nuw i8, ptr %56, i64 1264
  %58 = ptrtoint ptr %37 to i64
  %59 = ptrtoint ptr %57 to i64
  %60 = sub i64 %58, %59
  %61 = sdiv exact i64 %60, 24
  %62 = getelementptr inbounds nuw i8, ptr %56, i64 200
  %63 = load i64, ptr %62, align 8, !tbaa !51
  %64 = icmp ult i64 %61, %63
  br i1 %64, label %65, label %66

65:                                               ; preds = %48
  store i64 %61, ptr %62, align 8, !tbaa !51
  br label %66

66:                                               ; preds = %65, %48
  %67 = getelementptr inbounds nuw i8, ptr %56, i64 208
  %68 = load i64, ptr %67, align 8, !tbaa !52
  %69 = icmp ugt i64 %61, %68
  br i1 %69, label %70, label %76

70:                                               ; preds = %66
  store i64 %61, ptr %67, align 8, !tbaa !52
  br label %76

71:                                               ; preds = %41, %45, %mi_page_queue_of.exit
  store i8 %4, ptr %2, align 2
  %72 = load atomic i64, ptr %5 monotonic, align 8
  %73 = inttoptr i64 %72 to ptr
  %74 = load ptr, ptr %73, align 8, !tbaa !49
  %75 = getelementptr inbounds nuw i8, ptr %74, i64 32
  tail call fastcc void @mi_page_queue_remove(ptr noundef nonnull %37, ptr noundef nonnull %0) #14
  store atomic i64 0, ptr %5 release, align 8
  tail call void @_mi_segment_page_free(ptr noundef nonnull %0, i1 noundef zeroext false, ptr noundef nonnull %75) #13
  br label %76

76:                                               ; preds = %66, %70, %71
  ret void
}